; Function Attrs: mustprogress nofree nounwind willreturn memory(read) uwtable
define noundef zeroext i1 @_ZNK5osgeo4proj8metadata14VerticalExtent10intersectsERKN7dropbox6oxygen2nnISt10shared_ptrIS2_EEE(ptr nocapture noundef nonnull readonly align 8 dereferenceable(32) %0, ptr nocapture noundef nonnull readonly align 8 dereferenceable(16) %1) local_unnamed_addr #11 align 2 {
  %3 = getelementptr inbounds i8, ptr %0, i64 24
  %4 = load ptr, ptr %3, align 8
  %5 = getelementptr inbounds i8, ptr %4, i64 16
  %6 = load ptr, ptr %5, align 8
  %7 = tail call noundef double @_ZNK5osgeo4proj6common13UnitOfMeasure14conversionToSIEv(ptr noundef nonnull align 8 dereferenceable(24) %6) #32
  %8 = load ptr, ptr %1, align 8
  %9 = getelementptr inbounds i8, ptr %8, i64 24
  %10 = load ptr, ptr %9, align 8
  %11 = getelementptr inbounds i8, ptr %10, i64 16
  %12 = load ptr, ptr %11, align 8
  %13 = tail call noundef double @_ZNK5osgeo4proj6common13UnitOfMeasure14conversionToSIEv(ptr noundef nonnull align 8 dereferenceable(24) %12) #32
  %14 = load double, ptr %4, align 8
  %15 = fmul double %7, %14
  %16 = getelementptr inbounds i8, ptr %10, i64 8
  %17 = load double, ptr %16, align 8
  %18 = fmul double %13, %17
  %19 = fcmp ugt double %15, %18
  br i1 %19, label %27, label %20

20:                                               ; preds = %2
  %21 = getelementptr inbounds i8, ptr %4, i64 8
  %22 = load double, ptr %21, align 8
  %23 = fmul double %7, %22
  %24 = load double, ptr %10, align 8
  %25 = fmul double %13, %24
  %26 = fcmp oge double %23, %25
  br label %27

27:                                               ; preds = %20, %2
  %28 = phi i1 [ false, %2 ], [ %26, %20 ]
  ret i1 %28
}